target datalayout = "e-m:e-p270:32:32-p271:32:32-p272:64:64-i64:64-i128:128-f80:128-n8:16:32:64-S128"
target triple = "x86_64-pc-linux-gnu"

%"struct.Luau::CodeGen::IrOp" = type { i32 }

; Function Attrs: mustprogress uwtable
define dso_local void @_ZN4Luau7CodeGen21translateInstJumpxEqBERNS0_9IrBuilderEPKji(ptr noundef nonnull align 8 dereferenceable(752) %0, ptr noundef %1, i32 noundef %2) #0 {
  %4 = alloca ptr, align 8
  %5 = alloca ptr, align 8
  %6 = alloca i32, align 4
  %7 = alloca i32, align 4
  %8 = alloca i32, align 4
  %9 = alloca i8, align 1
  %10 = alloca %"struct.Luau::CodeGen::IrOp", align 4
  %11 = alloca %"struct.Luau::CodeGen::IrOp", align 4
  %12 = alloca %"struct.Luau::CodeGen::IrOp", align 4
  %13 = alloca %"struct.Luau::CodeGen::IrOp", align 4
  %14 = alloca %"struct.Luau::CodeGen::IrOp", align 4
  %15 = alloca %"struct.Luau::CodeGen::IrOp", align 4
  %16 = alloca %"struct.Luau::CodeGen::IrOp", align 4
  %17 = alloca %"struct.Luau::CodeGen::IrOp", align 4
  %18 = alloca %"struct.Luau::CodeGen::IrOp", align 4
  %19 = alloca %"struct.Luau::CodeGen::IrOp", align 4
  %20 = alloca %"struct.Luau::CodeGen::IrOp", align 4
  %21 = alloca %"struct.Luau::CodeGen::IrOp", align 4
  %22 = alloca %"struct.Luau::CodeGen::IrOp", align 4
  %23 = alloca %"struct.Luau::CodeGen::IrOp", align 4
  %24 = alloca %"struct.Luau::CodeGen::IrOp", align 4
  %25 = alloca %"struct.Luau::CodeGen::IrOp", align 4
  %26 = alloca %"struct.Luau::CodeGen::IrOp", align 4
  %27 = alloca %"struct.Luau::CodeGen::IrOp", align 4
  %28 = alloca %"struct.Luau::CodeGen::IrOp", align 4
  %29 = alloca %"struct.Luau::CodeGen::IrOp", align 4
  %30 = alloca %"struct.Luau::CodeGen::IrOp", align 4
  store ptr %0, ptr %4, align 8, !tbaa !4
  store ptr %1, ptr %5, align 8, !tbaa !9
  store i32 %2, ptr %6, align 4, !tbaa !11
  call void @llvm.lifetime.start.p0(i64 4, ptr %7) #13
  %31 = load ptr, ptr %5, align 8, !tbaa !9
  %32 = load i32, ptr %31, align 4, !tbaa !11
  %33 = lshr i32 %32, 8
  %34 = and i32 %33, 255
  store i32 %34, ptr %7, align 4, !tbaa !11
  call void @llvm.lifetime.start.p0(i64 4, ptr %8) #13
  %35 = load ptr, ptr %5, align 8, !tbaa !9
  %36 = getelementptr inbounds i32, ptr %35, i64 1
  %37 = load i32, ptr %36, align 4, !tbaa !11
  store i32 %37, ptr %8, align 4, !tbaa !11
  call void @llvm.lifetime.start.p0(i64 1, ptr %9) #13
  %38 = load i32, ptr %8, align 4, !tbaa !11
  %39 = and i32 %38, -2147483648
  %40 = icmp ne i32 %39, 0
  %41 = zext i1 %40 to i8
  store i8 %41, ptr %9, align 1, !tbaa !113
  call void @llvm.lifetime.start.p0(i64 4, ptr %10) #13
  %42 = load ptr, ptr %4, align 8, !tbaa !4
  %43 = load i32, ptr %6, align 4, !tbaa !11
  %44 = add nsw i32 %43, 1
  %45 = load ptr, ptr %5, align 8, !tbaa !9
  %46 = load i32, ptr %45, align 4, !tbaa !11
  %47 = ashr i32 %46, 16
  %48 = add nsw i32 %44, %47
  %49 = call i32 @_ZN4Luau7CodeGen9IrBuilder11blockAtInstEj(ptr noundef nonnull align 8 dereferenceable(752) %42, i32 noundef %48)
  %50 = getelementptr inbounds nuw %"struct.Luau::CodeGen::IrOp", ptr %10, i32 0, i32 0
  store i32 %49, ptr %50, align 4
  call void @llvm.lifetime.start.p0(i64 4, ptr %11) #13
  %51 = load ptr, ptr %4, align 8, !tbaa !4
  %52 = load i32, ptr %6, align 4, !tbaa !11
  %53 = add nsw i32 %52, 2
  %54 = call i32 @_ZN4Luau7CodeGen9IrBuilder11blockAtInstEj(ptr noundef nonnull align 8 dereferenceable(752) %51, i32 noundef %53)
  %55 = getelementptr inbounds nuw %"struct.Luau::CodeGen::IrOp", ptr %11, i32 0, i32 0
  store i32 %54, ptr %55, align 4
  call void @llvm.lifetime.start.p0(i64 4, ptr %12) #13
  %56 = load ptr, ptr %4, align 8, !tbaa !4
  %57 = call i32 @_ZN4Luau7CodeGen9IrBuilder5blockENS0_11IrBlockKindE(ptr noundef nonnull align 8 dereferenceable(752) %56, i8 noundef zeroext 2)
  %58 = getelementptr inbounds nuw %"struct.Luau::CodeGen::IrOp", ptr %12, i32 0, i32 0
  store i32 %57, ptr %58, align 4
  call void @llvm.lifetime.start.p0(i64 4, ptr %13) #13
  %59 = load ptr, ptr %4, align 8, !tbaa !4
  %60 = load ptr, ptr %4, align 8, !tbaa !4
  %61 = load i32, ptr %7, align 4, !tbaa !11
  %62 = trunc i32 %61 to i8
  %63 = call i32 @_ZN4Luau7CodeGen9IrBuilder5vmRegEh(ptr noundef nonnull align 8 dereferenceable(752) %60, i8 noundef zeroext %62)
  %64 = getelementptr inbounds nuw %"struct.Luau::CodeGen::IrOp", ptr %14, i32 0, i32 0
  store i32 %63, ptr %64, align 4
  %65 = getelementptr inbounds nuw %"struct.Luau::CodeGen::IrOp", ptr %14, i32 0, i32 0
  %66 = load i32, ptr %65, align 4
  %67 = call i32 @_ZN4Luau7CodeGen9IrBuilder4instENS0_5IrCmdENS0_4IrOpE(ptr noundef nonnull align 8 dereferenceable(752) %59, i8 noundef zeroext 1, i32 %66)
  %68 = getelementptr inbounds nuw %"struct.Luau::CodeGen::IrOp", ptr %13, i32 0, i32 0
  store i32 %67, ptr %68, align 4
  %69 = load ptr, ptr %4, align 8, !tbaa !4
  call void @llvm.memcpy.p0.p0.i64(ptr align 4 %15, ptr align 4 %13, i64 4, i1 false), !tbaa.struct !112
  %70 = load ptr, ptr %4, align 8, !tbaa !4
  %71 = call i32 @_ZN4Luau7CodeGen9IrBuilder8constTagEh(ptr noundef nonnull align 8 dereferenceable(752) %70, i8 noundef zeroext 1)
  %72 = getelementptr inbounds nuw %"struct.Luau::CodeGen::IrOp", ptr %16, i32 0, i32 0
  store i32 %71, ptr %72, align 4
  call void @llvm.memcpy.p0.p0.i64(ptr align 4 %17, ptr align 4 %12, i64 4, i1 false), !tbaa.struct !112
  %73 = load i8, ptr %9, align 1, !tbaa !113, !range !114, !noundef !115
  %74 = trunc i8 %73 to i1
  br i1 %74, label %75, label %76

75:                                               ; preds = %3
  br label %77

76:                                               ; preds = %3
  br label %77

77:                                               ; preds = %76, %75
  %78 = phi ptr [ %10, %75 ], [ %11, %76 ]
  call void @llvm.memcpy.p0.p0.i64(ptr align 4 %18, ptr align 4 %78, i64 4, i1 false), !tbaa.struct !112
  %79 = getelementptr inbounds nuw %"struct.Luau::CodeGen::IrOp", ptr %15, i32 0, i32 0
  %80 = load i32, ptr %79, align 4
  %81 = getelementptr inbounds nuw %"struct.Luau::CodeGen::IrOp", ptr %16, i32 0, i32 0
  %82 = load i32, ptr %81, align 4
  %83 = getelementptr inbounds nuw %"struct.Luau::CodeGen::IrOp", ptr %17, i32 0, i32 0
  %84 = load i32, ptr %83, align 4
  %85 = getelementptr inbounds nuw %"struct.Luau::CodeGen::IrOp", ptr %18, i32 0, i32 0
  %86 = load i32, ptr %85, align 4
  %87 = call i32 @_ZN4Luau7CodeGen9IrBuilder4instENS0_5IrCmdENS0_4IrOpES3_S3_S3_(ptr noundef nonnull align 8 dereferenceable(752) %69, i8 noundef zeroext 49, i32 %80, i32 %82, i32 %84, i32 %86)
  %88 = getelementptr inbounds nuw %"struct.Luau::CodeGen::IrOp", ptr %19, i32 0, i32 0
  store i32 %87, ptr %88, align 4
  %89 = load ptr, ptr %4, align 8, !tbaa !4
  call void @llvm.memcpy.p0.p0.i64(ptr align 4 %20, ptr align 4 %12, i64 4, i1 false), !tbaa.struct !112
  %90 = getelementptr inbounds nuw %"struct.Luau::CodeGen::IrOp", ptr %20, i32 0, i32 0
  %91 = load i32, ptr %90, align 4
  call void @_ZN4Luau7CodeGen9IrBuilder10beginBlockENS0_4IrOpE(ptr noundef nonnull align 8 dereferenceable(752) %89, i32 %91)
  call void @llvm.lifetime.start.p0(i64 4, ptr %21) #13
  %92 = load ptr, ptr %4, align 8, !tbaa !4
  %93 = load ptr, ptr %4, align 8, !tbaa !4
  %94 = load i32, ptr %7, align 4, !tbaa !11
  %95 = trunc i32 %94 to i8
  %96 = call i32 @_ZN4Luau7CodeGen9IrBuilder5vmRegEh(ptr noundef nonnull align 8 dereferenceable(752) %93, i8 noundef zeroext %95)
  %97 = getelementptr inbounds nuw %"struct.Luau::CodeGen::IrOp", ptr %22, i32 0, i32 0
  store i32 %96, ptr %97, align 4
  %98 = getelementptr inbounds nuw %"struct.Luau::CodeGen::IrOp", ptr %22, i32 0, i32 0
  %99 = load i32, ptr %98, align 4
  %100 = call i32 @_ZN4Luau7CodeGen9IrBuilder4instENS0_5IrCmdENS0_4IrOpE(ptr noundef nonnull align 8 dereferenceable(752) %92, i8 noundef zeroext 4, i32 %99)
  %101 = getelementptr inbounds nuw %"struct.Luau::CodeGen::IrOp", ptr %21, i32 0, i32 0
  store i32 %100, ptr %101, align 4
  %102 = load ptr, ptr %4, align 8, !tbaa !4
  call void @llvm.memcpy.p0.p0.i64(ptr align 4 %23, ptr align 4 %21, i64 4, i1 false), !tbaa.struct !112
  %103 = load ptr, ptr %4, align 8, !tbaa !4
  %104 = load i32, ptr %8, align 4, !tbaa !11
  %105 = and i32 %104, 1
  %106 = call i32 @_ZN4Luau7CodeGen9IrBuilder8constIntEi(ptr noundef nonnull align 8 dereferenceable(752) %103, i32 noundef %105)
  %107 = getelementptr inbounds nuw %"struct.Luau::CodeGen::IrOp", ptr %24, i32 0, i32 0
  store i32 %106, ptr %107, align 4
  %108 = load ptr, ptr %4, align 8, !tbaa !4
  %109 = call i32 @_ZN4Luau7CodeGen9IrBuilder4condENS0_11IrConditionE(ptr noundef nonnull align 8 dereferenceable(752) %108, i8 noundef zeroext 0)
  %110 = getelementptr inbounds nuw %"struct.Luau::CodeGen::IrOp", ptr %25, i32 0, i32 0
  store i32 %109, ptr %110, align 4
  %111 = load i8, ptr %9, align 1, !tbaa !113, !range !114, !noundef !115
  %112 = trunc i8 %111 to i1
  br i1 %112, label %113, label %114

113:                                              ; preds = %77
  br label %115

114:                                              ; preds = %77
  br label %115

115:                                              ; preds = %114, %113
  %116 = phi ptr [ %11, %113 ], [ %10, %114 ]
  call void @llvm.memcpy.p0.p0.i64(ptr align 4 %26, ptr align 4 %116, i64 4, i1 false), !tbaa.struct !112
  %117 = load i8, ptr %9, align 1, !tbaa !113, !range !114, !noundef !115
  %118 = trunc i8 %117 to i1
  br i1 %118, label %119, label %120

119:                                              ; preds = %115
  br label %121

120:                                              ; preds = %115
  br label %121

121:                                              ; preds = %120, %119
  %122 = phi ptr [ %10, %119 ], [ %11, %120 ]
  call void @llvm.memcpy.p0.p0.i64(ptr align 4 %27, ptr align 4 %122, i64 4, i1 false), !tbaa.struct !112
  %123 = getelementptr inbounds nuw %"struct.Luau::CodeGen::IrOp", ptr %23, i32 0, i32 0
  %124 = load i32, ptr %123, align 4
  %125 = getelementptr inbounds nuw %"struct.Luau::CodeGen::IrOp", ptr %24, i32 0, i32 0
  %126 = load i32, ptr %125, align 4
  %127 = getelementptr inbounds nuw %"struct.Luau::CodeGen::IrOp", ptr %25, i32 0, i32 0
  %128 = load i32, ptr %127, align 4
  %129 = getelementptr inbounds nuw %"struct.Luau::CodeGen::IrOp", ptr %26, i32 0, i32 0
  %130 = load i32, ptr %129, align 4
  %131 = getelementptr inbounds nuw %"struct.Luau::CodeGen::IrOp", ptr %27, i32 0, i32 0
  %132 = load i32, ptr %131, align 4
  %133 = call i32 @_ZN4Luau7CodeGen9IrBuilder4instENS0_5IrCmdENS0_4IrOpES3_S3_S3_S3_(ptr noundef nonnull align 8 dereferenceable(752) %102, i8 noundef zeroext 50, i32 %124, i32 %126, i32 %128, i32 %130, i32 %132)
  %134 = getelementptr inbounds nuw %"struct.Luau::CodeGen::IrOp", ptr %28, i32 0, i32 0
  store i32 %133, ptr %134, align 4
  %135 = load ptr, ptr %4, align 8, !tbaa !4
  call void @llvm.memcpy.p0.p0.i64(ptr align 4 %29, ptr align 4 %11, i64 4, i1 false), !tbaa.struct !112
  %136 = getelementptr inbounds nuw %"struct.Luau::CodeGen::IrOp", ptr %29, i32 0, i32 0
  %137 = load i32, ptr %136, align 4
  %138 = call noundef zeroext i1 @_ZN4Luau7CodeGen9IrBuilder15isInternalBlockENS0_4IrOpE(ptr noundef nonnull align 8 dereferenceable(752) %135, i32 %137)
  br i1 %138, label %139, label %143

139:                                              ; preds = %121
  %140 = load ptr, ptr %4, align 8, !tbaa !4
  call void @llvm.memcpy.p0.p0.i64(ptr align 4 %30, ptr align 4 %11, i64 4, i1 false), !tbaa.struct !112
  %141 = getelementptr inbounds nuw %"struct.Luau::CodeGen::IrOp", ptr %30, i32 0, i32 0
  %142 = load i32, ptr %141, align 4
  call void @_ZN4Luau7CodeGen9IrBuilder10beginBlockENS0_4IrOpE(ptr noundef nonnull align 8 dereferenceable(752) %140, i32 %142)
  br label %143

143:                                              ; preds = %139, %121
  call void @llvm.lifetime.end.p0(i64 4, ptr %21) #13
  call void @llvm.lifetime.end.p0(i64 4, ptr %13) #13
  call void @llvm.lifetime.end.p0(i64 4, ptr %12) #13
  call void @llvm.lifetime.end.p0(i64 4, ptr %11) #13
  call void @llvm.lifetime.end.p0(i64 4, ptr %10) #13
  call void @llvm.lifetime.end.p0(i64 1, ptr %9) #13
  call void @llvm.lifetime.end.p0(i64 4, ptr %8) #13
  call void @llvm.lifetime.end.p0(i64 4, ptr %7) #13
  ret void
}