; Function Attrs: mustprogress uwtable
define dso_local void @_ZN4Luau7CodeGen21translateInstJumpxEqBERNS0_9IrBuilderEPKji(ptr noundef nonnull align 8 dereferenceable(752) %0, ptr noundef readonly captures(none) %1, i32 noundef %2) local_unnamed_addr #0 {
  %4 = load i32, ptr %1, align 4, !tbaa !4
  %5 = lshr i32 %4, 8
  %6 = getelementptr inbounds nuw i8, ptr %1, i64 4
  %7 = load i32, ptr %6, align 4, !tbaa !4
  %.not = icmp sgt i32 %7, -1
  %8 = add nsw i32 %2, 1
  %9 = ashr i32 %4, 16
  %10 = add nsw i32 %8, %9
  %11 = tail call i32 @_ZN4Luau7CodeGen9IrBuilder11blockAtInstEj(ptr noundef nonnull align 8 dereferenceable(752) %0, i32 noundef %10)
  %12 = add nsw i32 %2, 2
  %13 = tail call i32 @_ZN4Luau7CodeGen9IrBuilder11blockAtInstEj(ptr noundef nonnull align 8 dereferenceable(752) %0, i32 noundef %12)
  %14 = tail call i32 @_ZN4Luau7CodeGen9IrBuilder5blockENS0_11IrBlockKindE(ptr noundef nonnull align 8 dereferenceable(752) %0, i8 noundef zeroext 2)
  %15 = trunc i32 %5 to i8
  %16 = tail call i32 @_ZN4Luau7CodeGen9IrBuilder5vmRegEh(ptr noundef nonnull align 8 dereferenceable(752) %0, i8 noundef zeroext %15)
  %17 = tail call i32 @_ZN4Luau7CodeGen9IrBuilder4instENS0_5IrCmdENS0_4IrOpE(ptr noundef nonnull align 8 dereferenceable(752) %0, i8 noundef zeroext 1, i32 %16)
  %18 = tail call i32 @_ZN4Luau7CodeGen9IrBuilder8constTagEh(ptr noundef nonnull align 8 dereferenceable(752) %0, i8 noundef zeroext 1)
  %.sroa.012.0.copyload.sroa.speculated = select i1 %.not, i32 %13, i32 %11
  %19 = tail call i32 @_ZN4Luau7CodeGen9IrBuilder4instENS0_5IrCmdENS0_4IrOpES3_S3_S3_(ptr noundef nonnull align 8 dereferenceable(752) %0, i8 noundef zeroext 49, i32 %17, i32 %18, i32 %14, i32 %.sroa.012.0.copyload.sroa.speculated)
  tail call void @_ZN4Luau7CodeGen9IrBuilder10beginBlockENS0_4IrOpE(ptr noundef nonnull align 8 dereferenceable(752) %0, i32 %14)
  %20 = tail call i32 @_ZN4Luau7CodeGen9IrBuilder5vmRegEh(ptr noundef nonnull align 8 dereferenceable(752) %0, i8 noundef zeroext %15)
  %21 = tail call i32 @_ZN4Luau7CodeGen9IrBuilder4instENS0_5IrCmdENS0_4IrOpE(ptr noundef nonnull align 8 dereferenceable(752) %0, i8 noundef zeroext 4, i32 %20)
  %22 = and i32 %7, 1
  %23 = tail call i32 @_ZN4Luau7CodeGen9IrBuilder8constIntEi(ptr noundef nonnull align 8 dereferenceable(752) %0, i32 noundef %22)
  %24 = tail call i32 @_ZN4Luau7CodeGen9IrBuilder4condENS0_11IrConditionE(ptr noundef nonnull align 8 dereferenceable(752) %0, i8 noundef zeroext 0)
  %.sroa.04.0.copyload.sroa.speculated = select i1 %.not, i32 %11, i32 %13
  %25 = tail call i32 @_ZN4Luau7CodeGen9IrBuilder4instENS0_5IrCmdENS0_4IrOpES3_S3_S3_S3_(ptr noundef nonnull align 8 dereferenceable(752) %0, i8 noundef zeroext 50, i32 %21, i32 %23, i32 %24, i32 %.sroa.04.0.copyload.sroa.speculated, i32 %.sroa.012.0.copyload.sroa.speculated)
  %26 = tail call noundef zeroext i1 @_ZN4Luau7CodeGen9IrBuilder15isInternalBlockENS0_4IrOpE(ptr noundef nonnull align 8 dereferenceable(752) %0, i32 %13)
  br i1 %26, label %27, label %28

27:                                               ; preds = %3
  tail call void @_ZN4Luau7CodeGen9IrBuilder10beginBlockENS0_4IrOpE(ptr noundef nonnull align 8 dereferenceable(752) %0, i32 %13)
  br label %28

28:                                               ; preds = %27, %3
  ret void
}